; Function Attrs: mustprogress uwtable
define dso_local void @_ZN9OutputMgr10output_tabERSoi(ptr nocapture nonnull readnone align 8 %0, ptr noundef nonnull align 8 dereferenceable(8) %1, i32 noundef %2) unnamed_addr #4 align 2 {
  %.not1.i = icmp eq i32 %2, 0
  br i1 %.not1.i, label %_ZN9OutputMgr11output_tab_ERSoi.exit, label %.lr.ph.i

.lr.ph.i:                                         ; preds = %3, %.lr.ph.i
  %.02.i = phi i32 [ %4, %.lr.ph.i ], [ %2, %3 ]
  %4 = add nsw i32 %.02.i, -1
  %5 = tail call noundef nonnull align 8 dereferenceable(8) ptr @_ZStlsISt11char_traitsIcEERSt13basic_ostreamIcT_ES5_PKc(ptr noundef nonnull align 8 dereferenceable(8) %1, ptr noundef nonnull @.str.55)
  %.not.i = icmp eq i32 %4, 0
  br i1 %.not.i, label %_ZN9OutputMgr11output_tab_ERSoi.exit, label %.lr.ph.i, !llvm.loop !9

_ZN9OutputMgr11output_tab_ERSoi.exit:             ; preds = %.lr.ph.i, %3
  ret void
}